target datalayout = "e-m:e-p270:32:32-p271:32:32-p272:64:64-i64:64-i128:128-f80:128-n8:16:32:64-S128"
target triple = "x86_64-pc-linux-gnu"

%struct.Abc_Frame_t_ = type { ptr, ptr, ptr, ptr, ptr, ptr, ptr, ptr, ptr, ptr, i32, i32, i32, i32, i32, ptr, float, float, i32, i32, ptr, ptr, ptr, double, double, ptr, ptr, ptr, ptr, ptr, ptr, ptr, ptr, ptr, ptr, ptr, ptr, float, ptr, i32, ptr, ptr, ptr, ptr, ptr, i32, i32, i32, i32, i32, i32, ptr, ptr, ptr, ptr, ptr, ptr, i32, i32, ptr, ptr, ptr, ptr, ptr, ptr, ptr, ptr, ptr, ptr, ptr, ptr, ptr, ptr, ptr, ptr, ptr, ptr, ptr, ptr, ptr, ptr, ptr, ptr, ptr, ptr, ptr, ptr, ptr, ptr }

@.str.65 = private unnamed_addr constant [2 x i8] c"h\00", align 1
@.str.71 = private unnamed_addr constant [34 x i8] c"\09-h    : print the command usage\0A\00", align 1
@.str.102 = private unnamed_addr constant [27 x i8] c"usage: unset [-h] <name> \0A\00", align 1
@.str.103 = private unnamed_addr constant [48 x i8] c"\09        removes the value of parameter <name>\0A\00", align 1

; Function Attrs: nounwind uwtable
define internal i32 @CmdCommandUnsetVariable(ptr noundef %0, i32 noundef %1, ptr noundef %2) #0 {
  %4 = alloca i32, align 4
  %5 = alloca ptr, align 8
  %6 = alloca i32, align 4
  %7 = alloca ptr, align 8
  %8 = alloca i32, align 4
  %9 = alloca ptr, align 8
  %10 = alloca ptr, align 8
  %11 = alloca i32, align 4
  store ptr %0, ptr %5, align 8
  store i32 %1, ptr %6, align 4
  store ptr %2, ptr %7, align 8
  call void (...) @Extra_UtilGetoptReset()
  br label %12

12:                                               ; preds = %3
  %13 = load i32, ptr %6, align 4
  %14 = load ptr, ptr %7, align 8
  %15 = call i32 @Extra_UtilGetopt(i32 noundef %13, ptr noundef %14, ptr noundef @.str.65)
  store i32 %15, ptr %11, align 4
  %16 = icmp ne i32 %15, -1
  br i1 %16, label %17, label %21

17:                                               ; preds = %12
  %18 = load i32, ptr %11, align 4
  switch i32 %18, label %20 [
    i32 104, label %19
  ]

19:                                               ; preds = %17
  br label %59

20:                                               ; preds = %17
  br label %59

21:                                               ; preds = %12
  %22 = load i32, ptr %6, align 4
  %23 = icmp slt i32 %22, 2
  br i1 %23, label %24, label %25

24:                                               ; preds = %21
  br label %59

25:                                               ; preds = %21
  store i32 1, ptr %8, align 4
  br label %26

26:                                               ; preds = %55, %25
  %27 = load i32, ptr %8, align 4
  %28 = load i32, ptr %6, align 4
  %29 = icmp slt i32 %27, %28
  br i1 %29, label %30, label %58

30:                                               ; preds = %26
  %31 = load ptr, ptr %7, align 8
  %32 = load i32, ptr %8, align 4
  %33 = sext i32 %32 to i64
  %34 = getelementptr inbounds ptr, ptr %31, i64 %33
  %35 = load ptr, ptr %34, align 8
  store ptr %35, ptr %9, align 8
  %36 = load ptr, ptr %5, align 8
  %37 = getelementptr inbounds %struct.Abc_Frame_t_, ptr %36, i32 0, i32 4
  %38 = load ptr, ptr %37, align 8
  %39 = call i32 @st__delete(ptr noundef %38, ptr noundef %9, ptr noundef %10)
  %40 = icmp ne i32 %39, 0
  br i1 %40, label %41, label %54

41:                                               ; preds = %30
  %42 = load ptr, ptr %9, align 8
  %43 = icmp ne ptr %42, null
  br i1 %43, label %44, label %46

44:                                               ; preds = %41
  %45 = load ptr, ptr %9, align 8
  call void @free(ptr noundef %45) #9
  store ptr null, ptr %9, align 8
  br label %47

46:                                               ; preds = %41
  br label %47

47:                                               ; preds = %46, %44
  %48 = load ptr, ptr %10, align 8
  %49 = icmp ne ptr %48, null
  br i1 %49, label %50, label %52

50:                                               ; preds = %47
  %51 = load ptr, ptr %10, align 8
  call void @free(ptr noundef %51) #9
  store ptr null, ptr %10, align 8
  br label %53

52:                                               ; preds = %47
  br label %53

53:                                               ; preds = %52, %50
  br label %54

54:                                               ; preds = %53, %30
  br label %55

55:                                               ; preds = %54
  %56 = load i32, ptr %8, align 4
  %57 = add nsw i32 %56, 1
  store i32 %57, ptr %8, align 4
  br label %26, !llvm.loop !19

58:                                               ; preds = %26
  store i32 0, ptr %4, align 4
  br label %72

59:                                               ; preds = %24, %20, %19
  %60 = load ptr, ptr %5, align 8
  %61 = getelementptr inbounds %struct.Abc_Frame_t_, ptr %60, i32 0, i32 21
  %62 = load ptr, ptr %61, align 8
  %63 = call i32 (ptr, ptr, ...) @fprintf(ptr noundef %62, ptr noundef @.str.102) #9
  %64 = load ptr, ptr %5, align 8
  %65 = getelementptr inbounds %struct.Abc_Frame_t_, ptr %64, i32 0, i32 21
  %66 = load ptr, ptr %65, align 8
  %67 = call i32 (ptr, ptr, ...) @fprintf(ptr noundef %66, ptr noundef @.str.103) #9
  %68 = load ptr, ptr %5, align 8
  %69 = getelementptr inbounds %struct.Abc_Frame_t_, ptr %68, i32 0, i32 21
  %70 = load ptr, ptr %69, align 8
  %71 = call i32 (ptr, ptr, ...) @fprintf(ptr noundef %70, ptr noundef @.str.71) #9
  store i32 1, ptr %4, align 4
  br label %72

72:                                               ; preds = %59, %58
  %73 = load i32, ptr %4, align 4
  ret i32 %73
}