; Function Attrs: nounwind uwtable
define internal range(i32 0, 2) i32 @CmdCommandUnsetVariable(ptr noundef readonly captures(none) %0, i32 noundef %1, ptr noundef %2) #0 {
  %4 = alloca ptr, align 8
  %5 = alloca ptr, align 8
  tail call void (...) @Extra_UtilGetoptReset() #17
  %6 = tail call i32 @Extra_UtilGetopt(i32 noundef %1, ptr noundef %2, ptr noundef nonnull @.str.65) #17
  %7 = icmp ne i32 %6, -1
  %8 = icmp slt i32 %1, 2
  %or.cond = or i1 %8, %7
  br i1 %or.cond, label %22, label %.preheader

.preheader:                                       ; preds = %3
  %9 = getelementptr inbounds nuw i8, ptr %0, i64 32
  %wide.trip.count = zext nneg i32 %1 to i64
  br label %10

10:                                               ; preds = %.preheader, %21
  %indvars.iv = phi i64 [ 1, %.preheader ], [ %indvars.iv.next, %21 ]
  %11 = getelementptr inbounds nuw ptr, ptr %2, i64 %indvars.iv
  %12 = load ptr, ptr %11, align 8
  store ptr %12, ptr %4, align 8
  %13 = load ptr, ptr %9, align 8
  %14 = call i32 @st__delete(ptr noundef %13, ptr noundef nonnull %4, ptr noundef nonnull %5) #17
  %.not = icmp eq i32 %14, 0
  br i1 %.not, label %21, label %15

15:                                               ; preds = %10
  %16 = load ptr, ptr %4, align 8
  %.not17 = icmp eq ptr %16, null
  br i1 %.not17, label %18, label %17

17:                                               ; preds = %15
  call void @free(ptr noundef nonnull %16) #17
  store ptr null, ptr %4, align 8
  br label %18

18:                                               ; preds = %15, %17
  %19 = load ptr, ptr %5, align 8
  %.not18 = icmp eq ptr %19, null
  br i1 %.not18, label %21, label %20

20:                                               ; preds = %18
  call void @free(ptr noundef nonnull %19) #17
  store ptr null, ptr %5, align 8
  br label %21

21:                                               ; preds = %10, %18, %20
  %indvars.iv.next = add nuw nsw i64 %indvars.iv, 1
  %exitcond.not = icmp eq i64 %indvars.iv.next, %wide.trip.count
  br i1 %exitcond.not, label %.loopexit, label %10, !llvm.loop !18

22:                                               ; preds = %3
  %23 = getelementptr inbounds nuw i8, ptr %0, i64 136
  %24 = load ptr, ptr %23, align 8
  %25 = tail call i64 @fwrite(ptr nonnull @.str.102, i64 26, i64 1, ptr %24)
  %26 = load ptr, ptr %23, align 8
  %27 = tail call i64 @fwrite(ptr nonnull @.str.103, i64 47, i64 1, ptr %26)
  %28 = load ptr, ptr %23, align 8
  %29 = tail call i64 @fwrite(ptr nonnull @.str.71, i64 33, i64 1, ptr %28)
  br label %.loopexit

.loopexit:                                        ; preds = %21, %22
  %.0 = phi i32 [ 1, %22 ], [ 0, %21 ]
  ret i32 %.0
}